; Function Attrs: nofree norecurse nosync nounwind memory(readwrite, inaccessiblemem: none) uwtable
define void @FT_Stroker_ExportBorder(ptr noundef readonly %0, i32 noundef %1, ptr noundef %2) local_unnamed_addr #6 {
  %4 = icmp ne ptr %0, null
  %5 = icmp ne ptr %2, null
  %or.cond = and i1 %4, %5
  %or.cond3 = icmp ult i32 %1, 2
  %or.cond12 = and i1 %or.cond3, %or.cond
  br i1 %or.cond12, label %6, label %59

6:                                                ; preds = %3
  %7 = getelementptr inbounds nuw i8, ptr %0, i64 112
  %8 = zext nneg i32 %1 to i64
  %9 = getelementptr inbounds nuw [2 x %struct.FT_StrokeBorderRec_], ptr %7, i64 0, i64 %8
  %10 = getelementptr inbounds nuw i8, ptr %9, i64 40
  %11 = load i8, ptr %10, align 8
  %.not = icmp eq i8 %11, 0
  br i1 %.not, label %59, label %12

12:                                               ; preds = %6
  %13 = load i32, ptr %9, align 8
  %.not.i = icmp eq i32 %13, 0
  br i1 %.not.i, label %.thread.i, label %16

.thread.i:                                        ; preds = %12
  %14 = getelementptr inbounds nuw i8, ptr %2, i64 2
  %15 = load i16, ptr %14, align 2
  br label %ft_stroke_border_export.exit

16:                                               ; preds = %12
  %17 = getelementptr inbounds nuw i8, ptr %2, i64 8
  %18 = load ptr, ptr %17, align 8
  %19 = getelementptr inbounds nuw i8, ptr %2, i64 2
  %20 = load i16, ptr %19, align 2
  %21 = zext i16 %20 to i64
  %22 = getelementptr inbounds nuw %struct.FT_Vector_, ptr %18, i64 %21
  %23 = getelementptr inbounds nuw i8, ptr %9, i64 8
  %24 = load ptr, ptr %23, align 8
  %25 = zext i32 %13 to i64
  %26 = shl nuw nsw i64 %25, 4
  tail call void @llvm.memcpy.p0.p0.i64(ptr align 8 %22, ptr align 8 %24, i64 %26, i1 false)
  %.pre.i = load i32, ptr %9, align 8
  %27 = getelementptr inbounds nuw i8, ptr %9, i64 16
  %28 = load i16, ptr %19, align 2
  %.not3944.i = icmp eq i32 %.pre.i, 0
  br i1 %.not3944.i, label %ft_stroke_border_export.exit, label %.lr.ph.preheader.i

.lr.ph.preheader.i:                               ; preds = %16
  %29 = load ptr, ptr %27, align 8
  %30 = getelementptr inbounds nuw i8, ptr %2, i64 16
  %31 = load ptr, ptr %30, align 8
  %32 = zext i16 %28 to i64
  %33 = getelementptr inbounds nuw i8, ptr %31, i64 %32
  br label %.lr.ph.i

.lr.ph.i:                                         ; preds = %.lr.ph.i, %.lr.ph.preheader.i
  %.03547.i = phi ptr [ %38, %.lr.ph.i ], [ %33, %.lr.ph.preheader.i ]
  %.03646.i = phi ptr [ %37, %.lr.ph.i ], [ %29, %.lr.ph.preheader.i ]
  %.03745.i = phi i32 [ %36, %.lr.ph.i ], [ %.pre.i, %.lr.ph.preheader.i ]
  %34 = load i8, ptr %.03646.i, align 1
  %35 = and i8 %34, 1
  %.not42.i = icmp eq i8 %35, 0
  %..i = and i8 %34, 2
  %.sink.i = select i1 %.not42.i, i8 %..i, i8 1
  store i8 %.sink.i, ptr %.03547.i, align 1
  %36 = add i32 %.03745.i, -1
  %37 = getelementptr inbounds nuw i8, ptr %.03646.i, i64 1
  %38 = getelementptr inbounds nuw i8, ptr %.03547.i, i64 1
  %.not39.i = icmp eq i32 %36, 0
  br i1 %.not39.i, label %._crit_edge.i, label %.lr.ph.i, !llvm.loop !15

._crit_edge.i:                                    ; preds = %.lr.ph.i
  %.pre56.i = load i32, ptr %9, align 8
  %.pre58.i = load i16, ptr %19, align 2
  %.not4048.i = icmp eq i32 %.pre56.i, 0
  br i1 %.not4048.i, label %ft_stroke_border_export.exit, label %.lr.ph54.preheader.i

.lr.ph54.preheader.i:                             ; preds = %._crit_edge.i
  %.pre57.i = load ptr, ptr %27, align 8
  %39 = getelementptr inbounds nuw i8, ptr %2, i64 24
  %40 = load ptr, ptr %39, align 8
  %41 = load i16, ptr %2, align 8
  %42 = zext i16 %41 to i64
  %43 = getelementptr inbounds nuw i16, ptr %40, i64 %42
  br label %.lr.ph54.i

.lr.ph54.i:                                       ; preds = %50, %.lr.ph54.preheader.i
  %.052.i = phi i16 [ %53, %50 ], [ %.pre58.i, %.lr.ph54.preheader.i ]
  %.03251.i = phi ptr [ %.1.i, %50 ], [ %43, %.lr.ph54.preheader.i ]
  %.03350.i = phi ptr [ %52, %50 ], [ %.pre57.i, %.lr.ph54.preheader.i ]
  %.03449.i = phi i32 [ %51, %50 ], [ %.pre56.i, %.lr.ph54.preheader.i ]
  %44 = load i8, ptr %.03350.i, align 1
  %45 = and i8 %44, 8
  %.not41.i = icmp eq i8 %45, 0
  br i1 %.not41.i, label %50, label %46

46:                                               ; preds = %.lr.ph54.i
  %47 = getelementptr inbounds nuw i8, ptr %.03251.i, i64 2
  store i16 %.052.i, ptr %.03251.i, align 2
  %48 = load i16, ptr %2, align 8
  %49 = add i16 %48, 1
  store i16 %49, ptr %2, align 8
  br label %50

50:                                               ; preds = %46, %.lr.ph54.i
  %.1.i = phi ptr [ %47, %46 ], [ %.03251.i, %.lr.ph54.i ]
  %51 = add i32 %.03449.i, -1
  %52 = getelementptr inbounds nuw i8, ptr %.03350.i, i64 1
  %53 = add i16 %.052.i, 1
  %.not40.i = icmp eq i32 %51, 0
  br i1 %.not40.i, label %._crit_edge55.loopexit.i, label %.lr.ph54.i, !llvm.loop !16

._crit_edge55.loopexit.i:                         ; preds = %50
  %.pre59.i = load i32, ptr %9, align 8
  %.pre60.i = load i16, ptr %19, align 2
  %54 = trunc i32 %.pre59.i to i16
  br label %ft_stroke_border_export.exit

ft_stroke_border_export.exit:                     ; preds = %.thread.i, %16, %._crit_edge.i, %._crit_edge55.loopexit.i
  %55 = phi ptr [ %19, %._crit_edge55.loopexit.i ], [ %19, %._crit_edge.i ], [ %14, %.thread.i ], [ %19, %16 ]
  %56 = phi i16 [ %.pre60.i, %._crit_edge55.loopexit.i ], [ %.pre58.i, %._crit_edge.i ], [ %15, %.thread.i ], [ %28, %16 ]
  %57 = phi i16 [ %54, %._crit_edge55.loopexit.i ], [ 0, %._crit_edge.i ], [ 0, %.thread.i ], [ 0, %16 ]
  %58 = add i16 %57, %56
  store i16 %58, ptr %55, align 2
  br label %59

59:                                               ; preds = %6, %ft_stroke_border_export.exit, %3
  ret void
}